; Function Attrs: mustprogress uwtable
define void @_ZN8facebook5velox5cache6SsdPinaSEOS2_(ptr nocapture noundef nonnull align 8 dereferenceable(16) %this, ptr nocapture noundef nonnull align 8 dereferenceable(16) %other) local_unnamed_addr #4 align 2 personality ptr @__gxx_personality_v0 {
entry:
  %0 = load ptr, ptr %this, align 8
  %cmp.not = icmp eq ptr %0, null
  br i1 %cmp.not, label %if.end, label %if.then

if.then:                                          ; preds = %entry
  %run_ = getelementptr inbounds i8, ptr %this, i64 8
  %1 = load i64, ptr %run_, align 8
  %mutex_.i = getelementptr inbounds i8, ptr %0, i64 40
  %call1.i.i.i.i.i = tail call noundef i32 @pthread_rwlock_wrlock(ptr noundef nonnull %mutex_.i) #34
  %cmp.i.i.i.i = icmp eq i32 %call1.i.i.i.i.i, 35
  br i1 %cmp.i.i.i.i, label %if.then.i.i.i.i, label %_ZNSt10lock_guardISt12shared_mutexEC2ERS0_.exit.i

if.then.i.i.i.i:                                  ; preds = %if.then
  tail call void @_ZSt20__throw_system_errori(i32 noundef 35) #35
  unreachable

_ZNSt10lock_guardISt12shared_mutexEC2ERS0_.exit.i: ; preds = %if.then
  %regionPins_.i = getelementptr inbounds i8, ptr %0, i64 192
  %2 = lshr i64 %1, 49
  %3 = load ptr, ptr %regionPins_.i, align 8
  %add.ptr.i.i = getelementptr inbounds i32, ptr %3, i64 %2
  %4 = load i32, ptr %add.ptr.i.i, align 4
  %dec.i = add nsw i32 %4, -1
  store i32 %dec.i, ptr %add.ptr.i.i, align 4
  %cmp.i = icmp slt i32 %4, 1
  br i1 %cmp.i, label %if.then.i, label %if.end.i

if.then.i:                                        ; preds = %_ZNSt10lock_guardISt12shared_mutexEC2ERS0_.exit.i
  tail call void @llvm.trap()
  unreachable

lpad.i:                                           ; preds = %if.then5.i
  %5 = landingpad { ptr, i32 }
          cleanup
  %call1.i.i.i.i2.i = tail call noundef i32 @pthread_rwlock_unlock(ptr noundef nonnull %mutex_.i) #34
  resume { ptr, i32 } %5

if.end.i:                                         ; preds = %_ZNSt10lock_guardISt12shared_mutexEC2ERS0_.exit.i
  %suspended_.i = getelementptr inbounds i8, ptr %0, i64 104
  %6 = load i8, ptr %suspended_.i, align 8
  %7 = and i8 %6, 1
  %tobool.i = icmp ne i8 %7, 0
  %cmp4.i = icmp eq i32 %dec.i, 0
  %or.cond.i = select i1 %tobool.i, i1 %cmp4.i, i1 false
  br i1 %or.cond.i, label %if.then5.i, label %_ZN8facebook5velox5cache7SsdFile11unpinRegionEm.exit

if.then5.i:                                       ; preds = %if.end.i
  %call7.i = invoke noundef zeroext i1 @_ZN8facebook5velox5cache7SsdFile17growOrEvictLockedEv(ptr noundef nonnull align 8 dereferenceable(381) %0)
          to label %_ZN8facebook5velox5cache7SsdFile11unpinRegionEm.exit unwind label %lpad.i

_ZN8facebook5velox5cache7SsdFile11unpinRegionEm.exit: ; preds = %if.end.i, %if.then5.i
  %call1.i.i.i.i3.i = tail call noundef i32 @pthread_rwlock_unlock(ptr noundef nonnull %mutex_.i) #34
  br label %if.end

if.end:                                           ; preds = %_ZN8facebook5velox5cache7SsdFile11unpinRegionEm.exit, %entry
  %8 = load ptr, ptr %other, align 8
  store ptr %8, ptr %this, align 8
  store ptr null, ptr %other, align 8
  %run_6 = getelementptr inbounds i8, ptr %other, i64 8
  %run_7 = getelementptr inbounds i8, ptr %this, i64 8
  %9 = load i64, ptr %run_6, align 8
  store i64 %9, ptr %run_7, align 8
  ret void
}